; Function Attrs: mustprogress uwtable
define dso_local noundef ptr @_ZN4Luau7Fixture19getMainSourceModuleEv(ptr noundef nonnull align 8 dereferenceable(2232) %0) local_unnamed_addr #6 align 2 personality ptr @__gxx_personality_v0 {
  %2 = alloca %"struct.std::__cxx11::basic_string<char>::__sv_wrapper", align 8
  %3 = alloca %"class.std::allocator.1", align 1
  %4 = alloca %"class.std::__cxx11::basic_string", align 8
  call void @llvm.lifetime.start.p0(i64 1, ptr nonnull %3)
  call void @_ZNSaIcEC1Ev(ptr noundef nonnull align 1 dereferenceable(1) %3) #27, !noalias !52
  call void @llvm.lifetime.start.p0(i64 16, ptr nonnull %2), !noalias !52
  %5 = call { i64, ptr } @_ZNSt7__cxx1112basic_stringIcSt11char_traitsIcESaIcEE17_S_to_string_viewESt17basic_string_viewIcS2_E(i64 10, ptr nonnull @.str.98) #27, !noalias !52
  %6 = extractvalue { i64, ptr } %5, 0
  %7 = extractvalue { i64, ptr } %5, 1
  call void @_ZNSt7__cxx1112basic_stringIcSt11char_traitsIcESaIcEE12__sv_wrapperC1ESt17basic_string_viewIcS2_E(ptr noundef nonnull align 8 dereferenceable(16) %2, i64 %6, ptr %7) #27
  %8 = load i64, ptr %2, align 8, !noalias !52
  %9 = getelementptr inbounds nuw i8, ptr %2, i64 8
  %10 = load ptr, ptr %9, align 8, !noalias !52
  invoke void @_ZNSt7__cxx1112basic_stringIcSt11char_traitsIcESaIcEEC2ENS4_12__sv_wrapperERKS3_(ptr noundef nonnull align 8 dereferenceable(32) %4, i64 %8, ptr %10, ptr noundef nonnull align 1 dereferenceable(1) %3)
          to label %_ZN4Luau10fromStringB5cxx11ESt17basic_string_viewIcSt11char_traitsIcEE.exit unwind label %11

common.resume:                                    ; preds = %16, %11
  %common.resume.op = phi { ptr, i32 } [ %12, %11 ], [ %17, %16 ]
  resume { ptr, i32 } %common.resume.op

11:                                               ; preds = %1
  %12 = landingpad { ptr, i32 }
          cleanup
  call void @_ZNSaIcED1Ev(ptr noundef nonnull align 1 dereferenceable(1) %3) #27
  br label %common.resume

_ZN4Luau10fromStringB5cxx11ESt17basic_string_viewIcSt11char_traitsIcEE.exit: ; preds = %1
  %13 = getelementptr inbounds nuw i8, ptr %0, i64 416
  call void @llvm.lifetime.end.p0(i64 16, ptr nonnull %2), !noalias !52
  call void @_ZNSaIcED1Ev(ptr noundef nonnull align 1 dereferenceable(1) %3) #27
  call void @llvm.lifetime.end.p0(i64 1, ptr nonnull %3)
  %14 = invoke noundef ptr @_ZN4Luau8Frontend15getSourceModuleERKNSt7__cxx1112basic_stringIcSt11char_traitsIcESaIcEEE(ptr noundef nonnull align 8 dereferenceable(1744) %13, ptr noundef nonnull align 8 dereferenceable(32) %4)
          to label %15 unwind label %16

15:                                               ; preds = %_ZN4Luau10fromStringB5cxx11ESt17basic_string_viewIcSt11char_traitsIcEE.exit
  call void @_ZNSt7__cxx1112basic_stringIcSt11char_traitsIcESaIcEED1Ev(ptr noundef nonnull align 8 dereferenceable(32) %4) #27
  ret ptr %14

16:                                               ; preds = %_ZN4Luau10fromStringB5cxx11ESt17basic_string_viewIcSt11char_traitsIcEE.exit
  %17 = landingpad { ptr, i32 }
          cleanup
  call void @_ZNSt7__cxx1112basic_stringIcSt11char_traitsIcESaIcEED1Ev(ptr noundef nonnull align 8 dereferenceable(32) %4) #27
  br label %common.resume
}